target datalayout = "e-m:e-p270:32:32-p271:32:32-p272:64:64-i64:64-i128:128-f80:128-n8:16:32:64-S128"
target triple = "x86_64-pc-linux-gnu"

%"class.pxrInternal_v0_24__pxrReserved__::pxr_double_conversion::Bignum" = type { i16, i16, [128 x i32] }

; Function Attrs: mustprogress nounwind uwtable
define noundef nonnull align 4 dereferenceable(4) ptr @_ZN32pxrInternal_v0_24__pxrReserved__21pxr_double_conversion6Bignum8RawBigitEi(ptr noundef nonnull align 4 dereferenceable(516) %0, i32 noundef %1) #0 align 2 {
  %3 = alloca ptr, align 8
  %4 = alloca i32, align 4
  store ptr %0, ptr %3, align 8
  store i32 %1, ptr %4, align 4
  %5 = load ptr, ptr %3, align 8
  %6 = getelementptr inbounds nuw %"class.pxrInternal_v0_24__pxrReserved__::pxr_double_conversion::Bignum", ptr %5, i32 0, i32 2
  %7 = load i32, ptr %4, align 4
  %8 = sext i32 %7 to i64
  %9 = getelementptr inbounds [128 x i32], ptr %6, i64 0, i64 %8
  ret ptr %9
}

; Function Attrs: mustprogress nounwind uwtable
define void @_ZN32pxrInternal_v0_24__pxrReserved__21pxr_double_conversion6Bignum15BigitsShiftLeftEi(ptr noundef nonnull align 4 dereferenceable(516) %0, i32 noundef %1) #0 align 2 {
  %3 = alloca ptr, align 8
  %4 = alloca i32, align 4
  %5 = alloca i32, align 4
  %6 = alloca i32, align 4
  %7 = alloca i32, align 4
  store ptr %0, ptr %3, align 8
  store i32 %1, ptr %4, align 4
  %8 = load ptr, ptr %3, align 8
  store i32 0, ptr %5, align 4
  store i32 0, ptr %6, align 4
  br label %9

9:                                                ; preds = %33, %2
  %10 = load i32, ptr %6, align 4
  %11 = getelementptr inbounds nuw %"class.pxrInternal_v0_24__pxrReserved__::pxr_double_conversion::Bignum", ptr %8, i32 0, i32 0
  %12 = load i16, ptr %11, align 4
  %13 = sext i16 %12 to i32
  %14 = icmp slt i32 %10, %13
  br i1 %14, label %15, label %36

15:                                               ; preds = %9
  %16 = load i32, ptr %6, align 4
  %17 = call noundef nonnull align 4 dereferenceable(4) ptr @_ZN32pxrInternal_v0_24__pxrReserved__21pxr_double_conversion6Bignum8RawBigitEi(ptr noundef nonnull align 4 dereferenceable(516) %8, i32 noundef %16)
  %18 = load i32, ptr %17, align 4
  %19 = load i32, ptr %4, align 4
  %20 = sub nsw i32 28, %19
  %21 = lshr i32 %18, %20
  store i32 %21, ptr %7, align 4
  %22 = load i32, ptr %6, align 4
  %23 = call noundef nonnull align 4 dereferenceable(4) ptr @_ZN32pxrInternal_v0_24__pxrReserved__21pxr_double_conversion6Bignum8RawBigitEi(ptr noundef nonnull align 4 dereferenceable(516) %8, i32 noundef %22)
  %24 = load i32, ptr %23, align 4
  %25 = load i32, ptr %4, align 4
  %26 = shl i32 %24, %25
  %27 = load i32, ptr %5, align 4
  %28 = add i32 %26, %27
  %29 = and i32 %28, 268435455
  %30 = load i32, ptr %6, align 4
  %31 = call noundef nonnull align 4 dereferenceable(4) ptr @_ZN32pxrInternal_v0_24__pxrReserved__21pxr_double_conversion6Bignum8RawBigitEi(ptr noundef nonnull align 4 dereferenceable(516) %8, i32 noundef %30)
  store i32 %29, ptr %31, align 4
  %32 = load i32, ptr %7, align 4
  store i32 %32, ptr %5, align 4
  br label %33

33:                                               ; preds = %15
  %34 = load i32, ptr %6, align 4
  %35 = add nsw i32 %34, 1
  store i32 %35, ptr %6, align 4
  br label %9, !llvm.loop !20

36:                                               ; preds = %9
  %37 = load i32, ptr %5, align 4
  %38 = icmp ne i32 %37, 0
  br i1 %38, label %39, label %48

39:                                               ; preds = %36
  %40 = load i32, ptr %5, align 4
  %41 = getelementptr inbounds nuw %"class.pxrInternal_v0_24__pxrReserved__::pxr_double_conversion::Bignum", ptr %8, i32 0, i32 0
  %42 = load i16, ptr %41, align 4
  %43 = sext i16 %42 to i32
  %44 = call noundef nonnull align 4 dereferenceable(4) ptr @_ZN32pxrInternal_v0_24__pxrReserved__21pxr_double_conversion6Bignum8RawBigitEi(ptr noundef nonnull align 4 dereferenceable(516) %8, i32 noundef %43)
  store i32 %40, ptr %44, align 4
  %45 = getelementptr inbounds nuw %"class.pxrInternal_v0_24__pxrReserved__::pxr_double_conversion::Bignum", ptr %8, i32 0, i32 0
  %46 = load i16, ptr %45, align 4
  %47 = add i16 %46, 1
  store i16 %47, ptr %45, align 4
  br label %48

48:                                               ; preds = %39, %36
  ret void
}